Certificate:
    Data:
        Version: 3 (0x2)
        Serial Number:
            25:ce:fd:e9:e6:a5:76:e1:00:00:00:00:00:00:00:00
        Signature Algorithm: sha256WithRSAEncryption
        Issuer: C=CN, ST=GuangDong, L=ShenZhen, O=PMS Technologies Co., Ltd, OU=OSS & Service Tools Dept, CN=OSS3.0 CA
        Validity
            Not Before: May 23 00:00:00 2021 GMT
            Not After : May 20 00:00:00 2036 GMT
        Subject: C=CN, ST=GuangDong, L=ShenZhen, O=PMS Technologies Co., Ltd, OU=OSS & Service Tools Dept, CN=OSS3.0 CA
        Subject Public Key Info:
            Public Key Algorithm: rsaEncryption
                RSA Public-Key: (3072 bit)
                Modulus:
                    00:af:85:d1:25:e7:e6:98:3c:bc:2b:82:09:14:be:
                    f6:e1:12:10:f0:f3:eb:22:c8:45:b3:b5:d1:84:5b:
                    12:c0:85:58:2e:58:1a:42:7c:c9:5f:6e:d6:ce:f9:
                    cd:69:a9:3a:9f:20:d2:64:40:37:0d:bb:0a:e6:78:
                    e8:89:03:05:58:5e:e4:66:d6:fc:52:c2:89:36:a7:
                    91:e6:b6:5b:19:f3:eb:0f:ea:d8:f5:58:f9:35:df:
                    fe:88:bf:77:17:b2:fa:a1:97:de:ed:61:7b:e2:19:
                    0b:17:0c:9c:d6:bc:81:a3:8a:7d:d3:3e:e1:2c:74:
                    3b:0e:eb:d5:07:41:05:51:78:8d:ad:4a:16:09:88:
                    3f:7c:6e:ed:18:dd:95:aa:2f:91:90:a1:1f:c5:58:
                    6c:47:98:95:5f:cb:5a:e4:36:00:97:6d:15:67:1d:
                    38:ec:ff:c9:bd:ed:5d:72:1a:25:7d:32:21:ec:a8:
                    b0:8f:74:8f:9e:fe:5d:72:c3:72:ee:42:61:58:a5:
                    91:ca:66:ec:3c:25:5a:67:49:bd:e2:4b:98:df:66:
                    31:e3:d3:b0:a9:5f:e7:35:f8:16:63:89:a6:f8:50:
                    d9:7e:3d:c6:25:95:78:ef:90:d7:aa:25:24:c4:d4:
                    51:d7:b6:0e:92:46:cc:3f:69:6c:ba:bf:04:16:28:
                    c1:0a:3d:b1:b4:cc:11:47:7c:8e:a0:21:4a:5e:76:
                    7a:26:d6:f8:8f:9b:02:78:64:22:84:c0:1b:fe:91:
                    1e:cf:c1:a1:4d:f0:0f:d0:2c:65:d9:4e:5c:1d:8f:
                    14:b3:24:a8:b4:59:2a:0a:9b:bc:bc:ae:b5:d7:60:
                    a8:87:2b:c5:da:68:7e:97:99:bb:db:18:77:3b:a4:
                    7f:c3:57:78:e4:75:93:a3:ca:d9:ee:22:64:c8:cb:
                    ee:2b:c6:3d:dc:79:fa:e6:eb:37:a7:4d:55:f1:d9:
                    ba:7e:60:fd:8f:7d:29:cf:5f:13:37:5d:0e:07:4e:
                    2e:18:35:e6:1e:d0:55:14:d3:3d
                Exponent: 65537 (0x10001)
        X509v3 extensions:
            X509v3 Basic Constraints: critical
                CA:TRUE, pathlen:0
            X509v3 Key Usage: critical
                Certificate Sign, CRL Sign
            X509v3 Subject Key Identifier: 
                83:A8:AB:64:5B:9E:DF:AE:8C:E2:A9:4B:03:80:63:0F:5C:0A:71:20
            X509v3 Authority Key Identifier: 
                keyid:83:A8:AB:64:5B:9E:DF:AE:8C:E2:A9:4B:03:80:63:0F:5C:0A:71:20
                DirName:/C=CN/ST=GuangDong/L=ShenZhen/O=PMS Technologies Co., Ltd/OU=OSS & Service Tools Dept/CN=OSS3.0 CA
                serial:25:CE:FD:E9:E6:A5:76:E1:00:00:00:00:00:00:00:00

            X509v3 Subject Alternative Name: 
                email:defaultca
            X509v3 Certificate Policies: 
                Policy: 1.1.1.1
                  CPS: Self-signed certificate
                  User Notice:
                    Explicit Text: Self-signed certificate.

    Signature Algorithm: sha256WithRSAEncryption
         49:4f:c4:98:e2:b2:e5:4d:00:66:92:1d:16:17:4e:d9:16:5c:
         8f:50:63:fc:34:2a:4d:65:3c:db:53:09:01:76:c3:54:d8:1b:
         a1:a3:57:7f:b6:36:ba:d9:b3:1f:97:b4:1a:ea:16:48:0a:b5:
         3a:a8:53:f9:d3:5f:d5:51:76:7d:6a:6c:d2:9e:5b:79:04:61:
         c1:c2:8a:17:60:83:40:b7:6b:5a:2a:05:ba:35:65:46:25:43:
         de:d2:5e:34:d3:c5:dc:e4:17:65:7e:73:12:32:85:33:91:9d:
         cb:20:56:9c:5c:ec:89:4b:08:77:5d:1f:56:98:3a:0a:2e:e1:
         1f:84:a1:1c:a2:12:cf:e3:24:d8:a8:f3:19:09:36:81:df:74:
         b5:d0:99:57:88:87:57:f3:f6:67:ef:ec:e6:bd:d2:a1:af:47:
         85:71:1b:fc:a7:54:88:a9:b9:a0:31:58:58:f1:c3:44:2f:13:
         7f:78:9e:eb:d5:af:97:9a:46:84:a9:ba:ee:1b:51:1f:a8:e1:
         f2:35:6d:03:03:c4:40:31:9c:90:20:4e:dd:28:8f:e7:85:a0:
         39:dc:a6:71:e7:fd:6e:ea:40:89:78:8d:0e:3b:4a:ea:a3:bc:
         cd:bd:94:a1:f4:fb:89:f6:e1:7c:3b:cb:cc:19:39:d7:3e:2a:
         0d:4c:fe:c3:8c:32:5b:78:5a:c6:cb:ce:e5:cf:74:94:28:a0:
         4a:29:11:3c:85:07:19:16:3d:35:b9:18:36:07:29:79:ba:f1:
         c3:dc:4e:cf:ea:9b:cf:a1:b3:c9:c3:55:1c:95:69:a1:2b:8a:
         da:b9:0c:75:d0:60:2b:fd:74:4f:8b:e5:1c:4e:17:38:c7:bb:
         00:42:df:ae:fe:6c:bd:ae:c9:16:33:68:f8:40:92:20:14:39:
         62:4b:25:a4:5b:31:79:e8:a4:ea:f9:29:30:e4:1d:e3:12:09:
         c3:38:c5:7d:08:bf:86:b4:ba:6e:f2:a8:48:fb:2c:1a:c6:29:
         a2:f3:b1:9a:d4:db
-----BEGIN CERTIFICATE-----
MIIGODCCBKCgAwIBAgIQJc796ealduEAAAAAAAAAADANBgkqhkiG9w0BAQsFADCB
jzELMAkGA1UEBhMCQ04xEjAQBgNVBAgMCUd1YW5nRG9uZzERMA8GA1UEBwwIU2hl
blpoZW4xIjAgBgNVBAoMGVBNUyBUZWNobm9sb2dpZXMgQ28uLCBMdGQxITAfBgNV
BAsMGE9TUyAmIFNlcnZpY2UgVG9vbHMgRGVwdDESMBAGA1UEAwwJT1NTMy4wIENB
MB4XDTIxMDUyMzAwMDAwMFoXDTM2MDUyMDAwMDAwMFowgY8xCzAJBgNVBAYTAkNO
MRIwEAYDVQQIDAlHdWFuZ0RvbmcxETAPBgNVBAcMCFNoZW5aaGVuMSIwIAYDVQQK
DBlQTVMgVGVjaG5vbG9naWVzIENvLiwgTHRkMSEwHwYDVQQLDBhPU1MgJiBTZXJ2
aWNlIFRvb2xzIERlcHQxEjAQBgNVBAMMCU9TUzMuMCBDQTCCAaIwDQYJKoZIhvcN
AQEBBQADggGPADCCAYoCggGBAK+F0SXn5pg8vCuCCRS+9uESEPDz6yLIRbO10YRb
EsCFWC5YGkJ8yV9u1s75zWmpOp8g0mRANw27CuZ46IkDBVhe5GbW/FLCiTankea2
Wxnz6w/q2PVY+TXf/oi/dxey+qGX3u1he+IZCxcMnNa8gaOKfdM+4Sx0Ow7r1QdB
BVF4ja1KFgmIP3xu7RjdlaovkZChH8VYbEeYlV/LWuQ2AJdtFWcdOOz/yb3tXXIa
JX0yIeyosI90j57+XXLDcu5CYVilkcpm7DwlWmdJveJLmN9mMePTsKlf5zX4FmOJ
pvhQ2X49xiWVeO+Q16olJMTUUde2DpJGzD9pbLq/BBYowQo9sbTMEUd8jqAhSl52
eibW+I+bAnhkIoTAG/6RHs/BoU3wD9AsZdlOXB2PFLMkqLRZKgqbvLyutddgqIcr
xdpofpeZu9sYdzukf8NXeOR1k6PK2e4iZMjL7ivGPdx5+ubrN6dNVfHZun5g/Y99
Kc9fEzddDgdOLhg15h7QVRTTPQIDAQABo4IBjDCCAYgwEgYDVR0TAQH/BAgwBgEB
/wIBADAOBgNVHQ8BAf8EBAMCAQYwHQYDVR0OBBYEFIOoq2Rbnt+ujOKpSwOAYw9c
CnEgMIHLBgNVHSMEgcMwgcCAFIOoq2Rbnt+ujOKpSwOAYw9cCnEgoYGVpIGSMIGP
MQswCQYDVQQGEwJDTjESMBAGA1UECAwJR3VhbmdEb25nMREwDwYDVQQHDAhTaGVu
WmhlbjEiMCAGA1UECgwZUE1TIFRlY2hub2xvZ2llcyBDby4sIEx0ZDEhMB8GA1UE
CwwYT1NTICYgU2VydmljZSBUb29scyBEZXB0MRIwEAYDVQQDDAlPU1MzLjAgQ0GC
ECXO/enmpXbhAAAAAAAAAAAwFAYDVR0RBA0wC4EJZGVmYXVsdGNhMF8GA1UdIARY
MFYwVAYDKQEBME0wIwYIKwYBBQUHAgEWF1NlbGYtc2lnbmVkIGNlcnRpZmljYXRl
MCYGCCsGAQUFBwICMBoMGFNlbGYtc2lnbmVkIGNlcnRpZmljYXRlLjANBgkqhkiG
9w0BAQsFAAOCAYEASU/EmOKy5U0AZpIdFhdO2RZcj1Bj/DQqTWU821MJAXbDVNgb
oaNXf7Y2utmzH5e0GuoWSAq1OqhT+dNf1VF2fWps0p5beQRhwcKKF2CDQLdrWioF
ujVlRiVD3tJeNNPF3OQXZX5zEjKFM5GdyyBWnFzsiUsId10fVpg6Ci7hH4ShHKIS
z+Mk2KjzGQk2gd90tdCZV4iHV/P2Z+/s5r3Soa9HhXEb/KdUiKm5oDFYWPHDRC8T
f3ie69Wvl5pGhKm67htRH6jh8jVtAwPEQDGckCBO3SiP54WgOdymcef9bupAiXiN
DjtK6qO8zb2UofT7ifbhfDvLzBk51z4qDUz+w4wyW3haxsvO5c90lCigSikRPIUH
GRY9NbkYNgcpebrxw9xOz+qbz6GzycNVHJVpoSuK2rkMddBgK/10T4vlHE4XOMe7
AELfrv5sva7JFjNo+ECSIBQ5YkslpFsxeeik6vkpMOQd4xIJwzjFfQi/hrS6bvKo
SPssGsYpovOxmtTb
-----END CERTIFICATE-----

