Certificate:
    Data:
        Version: 3 (0x2)
        Serial Number:
            25:ce:fd:e9:e6:a5:76:e1:00:00:00:00:00:00:00:01
        Signature Algorithm: sha256WithRSAEncryption
        Issuer: C=CN, ST=GuangDong, L=ShenZhen, O=PMS Technologies Co., Ltd, OU=OSS & Service Tools Dept, CN=OSS3.0 CA
        Validity
            Not Before: May 23 00:00:00 2021 GMT
            Not After : May 22 00:00:00 2031 GMT
        Subject: C=CN, O=PMS, CN=Platform Cert
        Subject Public Key Info:
            Public Key Algorithm: rsaEncryption
                RSA Public-Key: (3072 bit)
                Modulus:
                    00:ae:dc:b5:74:de:2d:2a:cc:ec:03:4a:bd:22:67:
                    0f:03:5b:2a:cc:d4:e1:37:7e:8a:4d:88:4b:8f:18:
                    d4:1b:38:9f:8e:2d:53:e0:1c:35:bf:53:9e:7b:0a:
                    61:26:ce:5e:1e:31:c1:bd:f0:a5:7a:cf:a2:91:bd:
                    79:11:94:f8:78:cf:cf:d2:c5:e4:54:49:a2:d1:93:
                    7f:5e:b9:fc:fa:9e:1a:8e:7d:ea:e5:e7:51:5c:0e:
                    41:8f:0a:48:02:27:78:2c:99:2e:b1:f4:76:22:11:
                    21:78:c7:c2:71:2b:c2:cb:7e:34:98:38:5c:dc:b7:
                    1b:a8:b6:5c:63:d0:6b:1b:ce:a9:73:4e:75:ca:34:
                    f1:71:6d:7e:d3:30:27:18:d8:58:f9:84:1e:15:40:
                    62:3f:c3:12:21:62:41:ce:e1:cd:11:96:f1:0f:c1:
                    a5:80:b6:eb:65:32:00:2f:a1:c8:19:11:68:9c:37:
                    38:51:54:99:be:2a:08:39:85:21:72:f0:a9:1a:3a:
                    49:3a:15:15:11:36:b9:41:18:ee:ba:e3:41:7e:6e:
                    3d:7b:fb:71:77:89:2c:bc:7f:45:b1:a7:23:4d:33:
                    02:29:3c:19:8a:ec:d1:9d:a9:e8:90:9a:9b:54:3f:
                    da:86:f9:13:c9:5a:98:7f:2f:3a:c9:f4:33:3e:2c:
                    81:41:3e:9e:59:e9:a7:3a:01:ea:29:70:1b:92:5e:
                    84:44:c5:8a:7b:0c:8f:fb:cc:8a:ab:bc:2e:65:57:
                    40:f2:1f:7d:dd:41:dd:f9:96:7a:af:36:82:75:71:
                    4e:53:78:70:75:26:7f:bf:c2:47:f6:d6:f8:21:0d:
                    a8:e9:6b:1e:b8:d5:eb:4e:bc:c0:a8:b2:5f:6a:14:
                    e0:f0:1c:df:ee:12:83:36:4f:a3:f8:df:f9:b1:dc:
                    3a:80:3f:d7:08:b8:7b:db:10:1b:31:7d:c8:09:da:
                    f0:d6:93:cd:60:30:39:3f:28:9a:65:4e:74:8f:c1:
                    e5:20:a3:38:59:b1:22:7a:c0:01
                Exponent: 65537 (0x10001)
        X509v3 extensions:
            X509v3 Basic Constraints: 
                CA:FALSE
            X509v3 Key Usage: critical
                Digital Signature, Non Repudiation, Key Encipherment, Key Agreement
            X509v3 Subject Key Identifier: 
                F4:F1:53:D8:0B:00:7F:8E:87:80:53:EF:E9:8C:18:CB:98:38:53:8C
            X509v3 Authority Key Identifier: 
                keyid:83:A8:AB:64:5B:9E:DF:AE:8C:E2:A9:4B:03:80:63:0F:5C:0A:71:20
                DirName:/C=CN/ST=GuangDong/L=ShenZhen/O=PMS Technologies Co., Ltd/OU=OSS & Service Tools Dept/CN=OSS3.0 CA
                serial:25:CE:FD:E9:E6:A5:76:E1:00:00:00:00:00:00:00:00

            X509v3 Subject Alternative Name: 
                DNS:oss.PMS.com
            X509v3 Certificate Policies: 
                Policy: 1.1.1.1
                  CPS: Self-signed certificate
                  User Notice:
                    Explicit Text: Self-signed certificate.

    Signature Algorithm: sha256WithRSAEncryption
         27:09:60:e3:8e:d1:3c:5e:f5:ec:fd:23:6f:65:1a:05:00:2e:
         36:70:8c:94:b4:f5:f1:59:d3:df:ea:75:a4:ba:fe:c6:95:4c:
         f0:1b:95:99:f3:3a:9b:a8:21:09:94:cd:64:83:57:69:88:b2:
         02:1a:c9:8b:37:00:e0:2b:f8:7f:9d:29:d8:eb:c9:e8:ec:19:
         0f:d4:fc:42:14:4f:42:f2:bb:fe:8f:4c:79:42:cc:ec:d1:73:
         5a:49:c8:a6:d1:dd:97:bf:80:2c:94:af:94:91:09:28:53:f0:
         ef:b5:4b:1d:fe:5e:29:e7:65:58:bc:89:42:6f:09:1f:53:8b:
         f1:38:52:91:de:c7:23:01:81:73:0c:b3:32:e9:79:0d:02:ae:
         39:bc:9a:4f:64:af:f0:f8:18:b4:e5:9e:12:2c:47:d5:c3:1a:
         7d:e2:02:c5:f3:78:99:e9:d0:b6:7a:dc:f0:d2:a2:ac:e9:80:
         b5:d3:2b:d7:42:9e:49:cd:78:44:3f:94:b0:ad:f9:28:95:ea:
         c5:e7:7b:db:51:fc:ce:17:2d:1b:e8:06:b6:ac:33:8c:96:70:
         51:77:be:d4:10:51:42:10:75:07:db:35:5c:63:66:f4:2c:f8:
         d8:6b:53:60:69:5a:2f:d1:be:0f:af:dc:09:5b:71:8d:52:be:
         8d:6c:2c:2f:63:01:7a:cd:0e:da:3b:46:1e:5b:6a:e9:f1:b4:
         8b:91:b5:9f:65:e1:d7:8a:57:76:3e:57:73:42:db:21:fd:dc:
         6d:f8:6e:08:01:4a:46:41:a5:39:5a:ca:58:56:dd:41:a9:98:
         f4:67:b8:fd:73:c5:c3:be:ae:f4:00:d2:91:97:3e:7f:ac:a2:
         4a:a1:35:cc:61:7a:38:0b:95:f2:e5:08:44:8d:6a:be:38:9b:
         f7:b5:20:b2:f3:68:df:76:b7:55:8d:78:f0:6d:28:75:36:2a:
         8d:cb:b7:e4:e2:e1:58:fe:7a:7c:f5:ec:51:24:92:3c:4f:83:
         0c:10:f9:e1:1c:aa
-----BEGIN CERTIFICATE-----
MIIF1DCCBDygAwIBAgIQJc796ealduEAAAAAAAAAATANBgkqhkiG9w0BAQsFADCB
jzELMAkGA1UEBhMCQ04xEjAQBgNVBAgMCUd1YW5nRG9uZzERMA8GA1UEBwwIU2hl
blpoZW4xIjAgBgNVBAoMGVBNUyBUZWNobm9sb2dpZXMgQ28uLCBMdGQxITAfBgNV
BAsMGE9TUyAmIFNlcnZpY2UgVG9vbHMgRGVwdDESMBAGA1UEAwwJT1NTMy4wIENB
MB4XDTIxMDUyMzAwMDAwMFoXDTMxMDUyMjAwMDAwMFowMzELMAkGA1UEBhMCQ04x
DDAKBgNVBAoMA1BNUzEWMBQGA1UEAwwNUGxhdGZvcm0gQ2VydDCCAaIwDQYJKoZI
hvcNAQEBBQADggGPADCCAYoCggGBAK7ctXTeLSrM7ANKvSJnDwNbKszU4Td+ik2I
S48Y1Bs4n44tU+AcNb9TnnsKYSbOXh4xwb3wpXrPopG9eRGU+HjPz9LF5FRJotGT
f165/PqeGo596uXnUVwOQY8KSAIneCyZLrH0diIRIXjHwnErwst+NJg4XNy3G6i2
XGPQaxvOqXNOdco08XFtftMwJxjYWPmEHhVAYj/DEiFiQc7hzRGW8Q/BpYC262Uy
AC+hyBkRaJw3OFFUmb4qCDmFIXLwqRo6SToVFRE2uUEY7rrjQX5uPXv7cXeJLLx/
RbGnI00zAik8GYrs0Z2p6JCam1Q/2ob5E8lamH8vOsn0Mz4sgUE+nlnppzoB6ilw
G5JehETFinsMj/vMiqu8LmVXQPIffd1B3fmWeq82gnVxTlN4cHUmf7/CR/bW+CEN
qOlrHrjV6068wKiyX2oU4PAc3+4SgzZPo/jf+bHcOoA/1wi4e9sQGzF9yAna8NaT
zWAwOT8ommVOdI/B5SCjOFmxInrAAQIDAQABo4IBhTCCAYEwCQYDVR0TBAIwADAO
BgNVHQ8BAf8EBAMCA+gwHQYDVR0OBBYEFPTxU9gLAH+Oh4BT7+mMGMuYOFOMMIHL
BgNVHSMEgcMwgcCAFIOoq2Rbnt+ujOKpSwOAYw9cCnEgoYGVpIGSMIGPMQswCQYD
VQQGEwJDTjESMBAGA1UECAwJR3VhbmdEb25nMREwDwYDVQQHDAhTaGVuWmhlbjEi
MCAGA1UECgwZUE1TIFRlY2hub2xvZ2llcyBDby4sIEx0ZDEhMB8GA1UECwwYT1NT
ICYgU2VydmljZSBUb29scyBEZXB0MRIwEAYDVQQDDAlPU1MzLjAgQ0GCECXO/enm
pXbhAAAAAAAAAAAwFgYDVR0RBA8wDYILb3NzLlBNUy5jb20wXwYDVR0gBFgwVjBU
BgMpAQEwTTAjBggrBgEFBQcCARYXU2VsZi1zaWduZWQgY2VydGlmaWNhdGUwJgYI
KwYBBQUHAgIwGgwYU2VsZi1zaWduZWQgY2VydGlmaWNhdGUuMA0GCSqGSIb3DQEB
CwUAA4IBgQAnCWDjjtE8XvXs/SNvZRoFAC42cIyUtPXxWdPf6nWkuv7GlUzwG5WZ
8zqbqCEJlM1kg1dpiLICGsmLNwDgK/h/nSnY68no7BkP1PxCFE9C8rv+j0x5Qszs
0XNaScim0d2Xv4AslK+UkQkoU/DvtUsd/l4p52VYvIlCbwkfU4vxOFKR3scjAYFz
DLMy6XkNAq45vJpPZK/w+Bi05Z4SLEfVwxp94gLF83iZ6dC2etzw0qKs6YC10yvX
Qp5JzXhEP5SwrfkolerF53vbUfzOFy0b6Aa2rDOMlnBRd77UEFFCEHUH2zVcY2b0
LPjYa1NgaVov0b4Pr9wJW3GNUr6NbCwvYwF6zQ7aO0YeW2rp8bSLkbWfZeHXild2
PldzQtsh/dxt+G4IAUpGQaU5WspYVt1BqZj0Z7j9c8XDvq70ANKRlz5/rKJKoTXM
YXo4C5Xy5QhEjWq+OJv3tSCy82jfdrdVjXjwbSh1NiqNy7fk4uFY/np89exRJJI8
T4MMEPnhHKo=
-----END CERTIFICATE-----
